; Function Attrs: nounwind sspstrong uwtable
define hidden noundef i64 @rb_default_home_dir(i64 noundef returned %0) local_unnamed_addr #0 {
  %2 = tail call ptr @getenv(ptr noundef nonnull @.str.3) #22
  %.not = icmp eq ptr %2, null
  br i1 %.not, label %3, label %31

3:                                                ; preds = %1
  %4 = tail call i64 @rb_getlogin() #22
  %5 = tail call i64 @rb_getpwdirnam_for_login(i64 noundef %4) #22
  %6 = icmp eq i64 %5, 4
  br i1 %6, label %7, label %14

7:                                                ; preds = %3
  %8 = tail call i64 @rb_getpwdiruid() #22
  %9 = icmp eq i64 %8, 4
  br i1 %9, label %10, label %14

10:                                               ; preds = %7
  %11 = load i64, ptr @rb_eArgError, align 8, !tbaa !12
  %12 = tail call i32 @getuid() #22
  %13 = zext i32 %12 to i64
  tail call void (i64, ptr, ...) @rb_raise(i64 noundef %11, ptr noundef nonnull @.str.4, i64 noundef %13) #24
  unreachable

14:                                               ; preds = %7, %3
  %.0 = phi i64 [ %8, %7 ], [ %5, %3 ]
  %15 = inttoptr i64 %.0 to ptr
  %16 = load i64, ptr %15, align 8, !tbaa !7, !noalias !99
  %17 = and i64 %16, 8192
  %.not.i.i = icmp eq i64 %17, 0
  %18 = getelementptr inbounds nuw i8, ptr %15, i64 24
  br i1 %.not.i.i, label %RSTRING_PTR.exit, label %19

19:                                               ; preds = %14
  %.sroa.2.0.copyload.i = load ptr, ptr %18, align 8
  br label %RSTRING_PTR.exit

RSTRING_PTR.exit:                                 ; preds = %14, %19
  %.sroa.2.0.i = phi ptr [ %.sroa.2.0.copyload.i, %19 ], [ %18, %14 ]
  %20 = tail call i64 @strlen(ptr noundef nonnull readonly dereferenceable(1) %.sroa.2.0.i) #23
  %21 = tail call i64 @rb_str_resize(i64 noundef %0, i64 noundef %20) #22
  %22 = inttoptr i64 %0 to ptr
  %23 = load i64, ptr %22, align 8, !tbaa !7, !noalias !102
  %24 = and i64 %23, 8192
  %.not.i.i.i = icmp eq i64 %24, 0
  %25 = getelementptr inbounds nuw i8, ptr %22, i64 24
  br i1 %.not.i.i.i, label %RSTRING_PTR.exit.i, label %26

26:                                               ; preds = %RSTRING_PTR.exit
  %.sroa.2.0.copyload.i.i = load ptr, ptr %25, align 8
  br label %RSTRING_PTR.exit.i

RSTRING_PTR.exit.i:                               ; preds = %26, %RSTRING_PTR.exit
  %.sroa.2.0.i.i = phi ptr [ %.sroa.2.0.copyload.i.i, %26 ], [ %25, %RSTRING_PTR.exit ]
  %.not.i.i13 = icmp eq i64 %20, 0
  br i1 %.not.i.i13, label %copy_home_path.exit, label %27

27:                                               ; preds = %RSTRING_PTR.exit.i
  tail call void @llvm.memcpy.p0.p0.i64(ptr noundef nonnull align 1 %.sroa.2.0.i.i, ptr noundef nonnull readonly align 1 %.sroa.2.0.i, i64 noundef range(i64 1, 0) %20, i1 noundef false) #22
  br label %copy_home_path.exit

copy_home_path.exit:                              ; preds = %RSTRING_PTR.exit.i, %27
  %28 = tail call i32 @rb_filesystem_encindex() #22
  %29 = tail call i64 @rb_enc_associate_index(i64 noundef %0, i32 noundef %28) #22
  %30 = tail call i64 @rb_str_resize(i64 noundef %.0, i64 noundef 0) #22
  br label %42

31:                                               ; preds = %1
  %32 = tail call i64 @strlen(ptr noundef nonnull readonly dereferenceable(1) %2) #23
  %33 = tail call i64 @rb_str_resize(i64 noundef %0, i64 noundef %32) #22
  %34 = inttoptr i64 %0 to ptr
  %35 = load i64, ptr %34, align 8, !tbaa !7, !noalias !105
  %36 = and i64 %35, 8192
  %.not.i.i.i14 = icmp eq i64 %36, 0
  %37 = getelementptr inbounds nuw i8, ptr %34, i64 24
  br i1 %.not.i.i.i14, label %RSTRING_PTR.exit.i16, label %38

38:                                               ; preds = %31
  %.sroa.2.0.copyload.i.i15 = load ptr, ptr %37, align 8
  br label %RSTRING_PTR.exit.i16

RSTRING_PTR.exit.i16:                             ; preds = %38, %31
  %.sroa.2.0.i.i17 = phi ptr [ %.sroa.2.0.copyload.i.i15, %38 ], [ %37, %31 ]
  %.not.i.i18 = icmp eq i64 %32, 0
  br i1 %.not.i.i18, label %copy_home_path.exit19, label %39

39:                                               ; preds = %RSTRING_PTR.exit.i16
  tail call void @llvm.memcpy.p0.p0.i64(ptr noundef nonnull align 1 %.sroa.2.0.i.i17, ptr noundef nonnull readonly align 1 %2, i64 noundef range(i64 1, 0) %32, i1 noundef false) #22
  br label %copy_home_path.exit19

copy_home_path.exit19:                            ; preds = %RSTRING_PTR.exit.i16, %39
  %40 = tail call i32 @rb_filesystem_encindex() #22
  %41 = tail call i64 @rb_enc_associate_index(i64 noundef %0, i32 noundef %40) #22
  br label %42

42:                                               ; preds = %copy_home_path.exit19, %copy_home_path.exit
  ret i64 %0
}